; Function Attrs: inlinehint mustprogress nounwind ssp uwtable
define internal void @_ZN6open3d9pipelines12registration12_GLOBAL__N_123PointCloudForColoredICPD0Ev(ptr noundef nonnull align 8 dereferenceable(168) initializes((0, 8)) %0) unnamed_addr #24 align 2 personality ptr @__gxx_personality_v0 {
  store ptr getelementptr inbounds nuw inrange(-16, 120) (i8, ptr @_ZTVN6open3d9pipelines12registration12_GLOBAL__N_123PointCloudForColoredICPE, i64 16), ptr %0, align 8, !tbaa !4
  %2 = getelementptr inbounds nuw i8, ptr %0, i64 144
  %3 = load ptr, ptr %2, align 8, !tbaa !32
  %.not.i.i.i.i = icmp eq ptr %3, null
  br i1 %.not.i.i.i.i, label %_ZN6open3d9pipelines12registration12_GLOBAL__N_123PointCloudForColoredICPD2Ev.exit, label %4

4:                                                ; preds = %1
  %5 = getelementptr inbounds nuw i8, ptr %0, i64 160
  %6 = load ptr, ptr %5, align 8, !tbaa !150
  %7 = ptrtoint ptr %6 to i64
  %8 = ptrtoint ptr %3 to i64
  %9 = sub i64 %7, %8
  tail call void @_ZdlPvm(ptr noundef nonnull %3, i64 noundef %9) #39
  br label %_ZN6open3d9pipelines12registration12_GLOBAL__N_123PointCloudForColoredICPD2Ev.exit

_ZN6open3d9pipelines12registration12_GLOBAL__N_123PointCloudForColoredICPD2Ev.exit: ; preds = %1, %4
  tail call void @_ZN6open3d8geometry10PointCloudD2Ev(ptr noundef nonnull align 8 dereferenceable(168) %0) #30
  tail call void @_ZdlPvm(ptr noundef nonnull %0, i64 noundef 168) #39
  ret void
}